Certificate:
    Data:
        Version: 3 (0x2)
        Serial Number: 4 (0x4)
        Signature Algorithm: sha1WithRSAEncryption
        Issuer: C=DE, ST=LowerSaxony, L=Peine, O=wechall.net, OU=development, CN=authme.wechall.net/emailAddress=gizmore@wechall.net
        Validity
            Not Before: Jul 20 06:39:17 2013 GMT
            Not After : Jul 20 06:39:17 2014 GMT
        Subject: C=DE, ST=LowerSaxony, O=wechall.net, OU=development, CN=authme.wechall.net/emailAddress=gizmore@wechall.net
        Subject Public Key Info:
            Public Key Algorithm: rsaEncryption
            RSA Public Key: (4096 bit)
                Modulus (4096 bit):
                    00:d6:2c:f4:1f:44:c5:52:b0:5a:34:cf:18:53:91:
                    22:73:ca:9e:ef:07:95:12:d3:ec:aa:c4:5e:5e:33:
                    50:e3:b0:7a:b2:24:93:c6:fd:be:09:4e:50:b2:ac:
                    c8:7d:24:b9:8f:f0:88:a8:e6:23:de:81:ec:21:1b:
                    91:90:91:5f:6c:90:92:7b:01:3b:18:09:3c:2c:e1:
                    6c:b9:2b:d7:30:64:6a:e8:8d:ca:79:af:b6:27:dc:
                    c2:61:96:cd:f3:a3:5b:3a:95:d4:ae:b6:35:60:46:
                    eb:09:08:9b:a1:be:31:51:0d:4d:c9:4f:23:e7:37:
                    85:92:b9:71:92:5a:8d:ee:fb:77:b9:b5:c5:e0:0c:
                    59:1a:f4:ac:ef:e6:6e:72:04:b0:5f:89:de:ac:62:
                    b3:53:15:d7:0c:93:32:3b:c2:cf:ba:7a:cd:82:77:
                    19:7d:97:de:df:94:5e:d3:0e:a9:37:18:b9:0a:76:
                    ff:5f:c1:b1:ee:12:ca:80:e0:be:6d:d4:4a:7e:2a:
                    aa:a2:2b:a8:b2:66:e5:ed:06:e0:97:c0:8d:13:c3:
                    53:c4:5c:d5:0f:ae:0d:ee:06:0d:60:b8:8e:7e:40:
                    2c:8d:38:82:4f:6c:61:91:f5:4f:7c:53:11:3b:5c:
                    05:07:c2:16:dc:5b:79:d0:33:38:b7:7c:75:8a:9e:
                    7a:63:19:77:39:7b:ec:d2:5a:98:3f:de:0e:ff:61:
                    50:d6:53:57:f0:11:fd:06:b3:9f:d3:8f:22:04:26:
                    22:cb:ae:3b:1b:76:ec:8b:df:06:4b:14:e7:32:89:
                    fc:ad:a9:2b:c2:48:73:68:37:1a:af:66:dc:0e:53:
                    3e:1b:70:86:67:bd:00:9c:01:ea:39:36:9a:10:e7:
                    ce:e8:0b:9e:1f:cd:85:35:79:46:78:13:18:09:7a:
                    94:e3:50:f2:58:c5:a4:82:80:e0:a5:2e:1b:af:98:
                    df:d7:9f:23:a3:69:c8:c7:76:01:60:a6:34:6a:7f:
                    26:e9:fe:3f:c1:ef:72:88:03:12:60:f8:6c:08:a3:
                    e5:b0:60:75:18:56:57:72:a6:f9:d6:c4:88:93:cf:
                    3a:2c:d9:df:42:23:c0:d2:13:26:27:94:ce:5a:24:
                    e5:83:82:c1:24:1f:12:a2:42:0e:7e:20:e6:6f:0d:
                    41:d0:0c:5c:a5:f7:42:8c:ba:a8:4a:0d:c6:04:07:
                    58:22:c1:a9:ca:67:32:0f:b8:90:05:81:7e:bd:b6:
                    5f:f0:9c:43:1f:45:fa:07:24:84:ba:d1:0b:8a:bd:
                    43:b3:cf:9f:ed:a7:91:92:5e:2f:42:65:9e:cc:68:
                    da:81:87:4d:42:02:2e:af:fe:43:d6:2a:38:5a:fa:
                    72:f9:ff
                Exponent: 65537 (0x10001)
        X509v3 extensions:
            X509v3 Basic Constraints: 
                CA:FALSE
            Netscape Comment: 
                OpenSSL Generated Certificate
            X509v3 Subject Key Identifier: 
                22:5E:8D:35:85:A8:90:48:9B:F8:5E:4E:0C:2B:DD:A4:97:4B:3D:8A
            X509v3 Authority Key Identifier: 
                keyid:B9:12:5C:69:D5:83:A7:FC:AE:0A:55:93:32:F0:11:46:45:CD:7A:B8

    Signature Algorithm: sha1WithRSAEncryption
        7e:23:05:3d:70:71:8b:07:9d:5a:c9:19:9c:39:9c:b3:64:92:
        2b:f8:d5:eb:45:7b:56:6e:e2:46:bb:0a:c1:61:fb:ef:5c:da:
        14:6f:ec:65:e0:f0:c3:65:e7:65:1f:ea:71:22:59:f1:1c:53:
        e0:32:41:90:7a:6e:ad:ed:65:f8:25:77:14:43:02:56:06:7b:
        85:c5:7c:2a:d2:28:ec:89:d1:72:47:33:e8:aa:12:aa:b5:7e:
        da:8a:1d:e6:be:94:1d:2d:71:f2:82:ba:9c:ac:21:f5:b0:13:
        00:fe:af:82:ee:d5:96:61:e9:15:90:52:b4:9f:00:f0:7f:c6:
        4b:06:27:cd:af:e5:31:f3:3b:46:88:91:e0:27:4f:8a:d0:79:
        9b:71:51:89:61:ab:10:f0:f9:85:48:36:a2:f9:48:e5:32:51:
        df:3a:89:28:85:95:d1:8e:61:93:62:04:e7:f1:f8:b4:61:74:
        94:91:98:43:c9:86:79:22:db:58:81:2f:d9:f8:90:52:42:20:
        86:aa:dc:b6:d9:23:cf:aa:57:1c:fe:b1:df:06:c4:72:e3:46:
        a9:cc:be:4c:a2:c1:01:e8:91:a3:8a:2a:49:25:76:44:2f:ef:
        06:52:94:a5:eb:f8:09:b1:f8:21:05:2c:94:12:ff:c1:85:cf:
        ea:be:31:ef:de:2f:ce:4e:c0:e9:14:7b:f5:6b:59:77:88:5c:
        d0:b0:75:49:c6:76:c6:16:2b:66:15:0d:fe:d5:f6:df:f1:2d:
        5b:a7:16:2a:a9:14:e5:0a:14:19:f4:21:ba:4e:c6:0d:bc:a6:
        05:63:13:79:a9:28:9b:f8:67:34:7f:65:4f:75:89:50:41:c7:
        ea:cc:44:36:84:95:f0:e2:00:28:87:6f:24:03:62:fa:c8:d1:
        c5:50:8f:fe:ff:5f:da:9e:07:9c:17:08:a2:26:29:9d:eb:f6:
        c7:3c:72:5a:0e:09:18:0e:5b:9f:29:f9:71:ef:21:cc:7b:43:
        d3:16:65:44:3d:c7:62:bf:86:2f:65:86:57:a3:81:9b:b4:52:
        8f:71:57:db:af:91:00:94:1b:d9:ab:34:5c:5a:fe:8a:dd:51:
        e4:65:b5:55:d0:4d:32:90:de:f8:27:51:a0:1d:77:d5:87:ba:
        9c:e5:64:42:50:ec:d0:7d:eb:b0:77:65:d0:ed:73:17:88:dd:
        9b:9c:57:55:db:6e:5f:e3:d5:e3:ac:7d:be:21:32:1b:77:fd:
        84:fd:19:66:81:9d:00:89:fb:b3:38:51:7a:39:e5:94:a9:16:
        c8:c1:42:c5:c7:8b:0e:44:e8:d4:ec:9a:b5:69:f3:c1:e9:2d:
        c3:cc:81:88:be:a7:cb:b1
-----BEGIN CERTIFICATE-----
MIIGKDCCBBCgAwIBAgIBBDANBgkqhkiG9w0BAQUFADCBoDELMAkGA1UEBhMCREUx
FDASBgNVBAgTC0xvd2VyU2F4b255MQ4wDAYDVQQHEwVQZWluZTEUMBIGA1UEChML
d2VjaGFsbC5uZXQxFDASBgNVBAsTC2RldmVsb3BtZW50MRswGQYDVQQDExJhdXRo
bWUud2VjaGFsbC5uZXQxIjAgBgkqhkiG9w0BCQEWE2dpem1vcmVAd2VjaGFsbC5u
ZXQwHhcNMTMwNzIwMDYzOTE3WhcNMTQwNzIwMDYzOTE3WjCBkDELMAkGA1UEBhMC
REUxFDASBgNVBAgTC0xvd2VyU2F4b255MRQwEgYDVQQKEwt3ZWNoYWxsLm5ldDEU
MBIGA1UECxMLZGV2ZWxvcG1lbnQxGzAZBgNVBAMTEmF1dGhtZS53ZWNoYWxsLm5l
dDEiMCAGCSqGSIb3DQEJARYTZ2l6bW9yZUB3ZWNoYWxsLm5ldDCCAiIwDQYJKoZI
hvcNAQEBBQADggIPADCCAgoCggIBANYs9B9ExVKwWjTPGFORInPKnu8HlRLT7KrE
Xl4zUOOwerIkk8b9vglOULKsyH0kuY/wiKjmI96B7CEbkZCRX2yQknsBOxgJPCzh
bLkr1zBkauiNynmvtifcwmGWzfOjWzqV1K62NWBG6wkIm6G+MVENTclPI+c3hZK5
cZJaje77d7m1xeAMWRr0rO/mbnIEsF+J3qxis1MV1wyTMjvCz7p6zYJ3GX2X3t+U
XtMOqTcYuQp2/1/Bse4SyoDgvm3USn4qqqIrqLJm5e0G4JfAjRPDU8Rc1Q+uDe4G
DWC4jn5ALI04gk9sYZH1T3xTETtcBQfCFtxbedAzOLd8dYqeemMZdzl77NJamD/e
Dv9hUNZTV/AR/Qazn9OPIgQmIsuuOxt27IvfBksU5zKJ/K2pK8JIc2g3Gq9m3A5T
Phtwhme9AJwB6jk2mhDnzugLnh/NhTV5RngTGAl6lONQ8ljFpIKA4KUuG6+Y39ef
I6NpyMd2AWCmNGp/Jun+P8HvcogDEmD4bAij5bBgdRhWV3Km+dbEiJPPOizZ30Ij
wNITJieUzlok5YOCwSQfEqJCDn4g5m8NQdAMXKX3Qoy6qEoNxgQHWCLBqcpnMg+4
kAWBfr22X/CcQx9F+gckhLrRC4q9Q7PPn+2nkZJeL0Jlnsxo2oGHTUICLq/+Q9Yq
OFr6cvn/AgMBAAGjezB5MAkGA1UdEwQCMAAwLAYJYIZIAYb4QgENBB8WHU9wZW5T
U0wgR2VuZXJhdGVkIENlcnRpZmljYXRlMB0GA1UdDgQWBBQiXo01haiQSJv4Xk4M
K92kl0s9ijAfBgNVHSMEGDAWgBS5Elxp1YOn/K4KVZMy8BFGRc16uDANBgkqhkiG
9w0BAQUFAAOCAgEAfiMFPXBxiwedWskZnDmcs2SSK/jV60V7Vm7iRrsKwWH771za
FG/sZeDww2XnZR/qcSJZ8RxT4DJBkHpure1l+CV3FEMCVgZ7hcV8KtIo7InRckcz
6KoSqrV+2ood5r6UHS1x8oK6nKwh9bATAP6vgu7VlmHpFZBStJ8A8H/GSwYnza/l
MfM7RoiR4CdPitB5m3FRiWGrEPD5hUg2ovlI5TJR3zqJKIWV0Y5hk2IE5/H4tGF0
lJGYQ8mGeSLbWIEv2fiQUkIghqrcttkjz6pXHP6x3wbEcuNGqcy+TKLBAeiRo4oq
SSV2RC/vBlKUpev4CbH4IQUslBL/wYXP6r4x794vzk7A6RR79WtZd4hc0LB1ScZ2
xhYrZhUN/tX23/EtW6cWKqkU5QoUGfQhuk7GDbymBWMTeakom/hnNH9lT3WJUEHH
6sxENoSV8OIAKIdvJANi+sjRxVCP/v9f2p4HnBcIoiYpnev2xzxyWg4JGA5bnyn5
ce8hzHtD0xZlRD3HYr+GL2WGV6OBm7RSj3FX26+RAJQb2as0XFr+it1R5GW1VdBN
MpDe+CdRoB131Ye6nOVkQlDs0H3rsHdl0O1zF4jdm5xXVdtuX+PV46x9viEyG3f9
hP0ZZoGdAIn7szhRejnllKkWyMFCxceLDkTo1OyatWnzwektw8yBiL6ny7E=
-----END CERTIFICATE-----
