Certificate:
    Data:
        Version: 3 (0x2)
        Serial Number: 1 (0x1)
        Signature Algorithm: sha1WithRSAEncryption
        Issuer: C=DE, ST=LowerSaxony, L=Peine, O=wechall.net, OU=development, CN=authme.wechall.net/emailAddress=gizmore@wechall.net
        Validity
            Not Before: Jul 20 04:22:03 2013 GMT
            Not After : Jul 20 04:22:03 2014 GMT
        Subject: C=DE, ST=LowerSaxony, L=Peine, O=wechall.net, OU=development, CN=authme.wechall.net/emailAddress=gizmore@wechall.net
        Subject Public Key Info:
            Public Key Algorithm: rsaEncryption
            RSA Public Key: (4096 bit)
                Modulus (4096 bit):
                    00:bc:58:a7:a9:c0:15:3c:05:14:f6:67:9e:9a:37:
                    6a:7b:e8:62:db:53:02:92:7b:9f:58:95:47:bf:ad:
                    44:d6:d2:a7:df:ca:4e:40:f4:4a:f5:4a:3a:16:9a:
                    01:68:17:f2:b1:05:56:6f:e7:48:10:4e:45:50:06:
                    f3:5a:b0:a3:21:5f:19:c3:fa:6c:f7:15:18:5a:e7:
                    9b:36:7e:ee:b2:e9:be:8d:1a:fb:bd:fc:68:ac:3b:
                    01:35:12:32:a5:1b:81:7e:95:0d:dd:b1:5e:87:bd:
                    ca:0e:06:ff:d1:ac:d7:0c:77:12:fc:e0:d9:88:50:
                    4e:84:63:a1:61:93:b3:88:25:da:d8:2c:82:1d:fe:
                    a5:d0:92:db:5e:0a:0f:d6:b3:7c:4e:29:fa:44:e4:
                    e7:47:92:54:37:ae:f8:55:d8:97:a5:94:bf:07:86:
                    1c:8e:93:29:22:e3:38:e0:4d:d4:7a:1a:b8:14:89:
                    0e:01:3b:c3:02:72:17:a1:e0:2b:17:eb:53:c3:be:
                    0e:32:3b:8f:4e:ee:04:d8:46:84:de:1d:17:0f:1a:
                    f6:4e:b0:8d:b0:26:0a:09:31:cc:8e:db:c1:ef:82:
                    72:37:18:d6:d0:12:7d:4d:11:54:b7:1e:22:33:b6:
                    30:85:d0:be:8c:f1:ee:da:63:06:21:37:c9:35:43:
                    c6:3a:ee:f8:39:73:59:04:02:7c:e6:cf:ce:93:f2:
                    49:ee:f2:88:04:bb:bf:25:8d:f2:4c:f8:84:69:0a:
                    8b:ef:9e:73:81:74:f3:67:44:13:02:d8:39:73:79:
                    2f:5a:cd:ec:15:a2:3e:db:78:35:42:bc:4a:10:c5:
                    e8:d9:93:3f:6e:55:d3:72:bc:40:80:3b:49:aa:d0:
                    75:72:6c:cc:f0:b8:d4:37:90:cc:e2:ed:5a:0e:cc:
                    ab:52:ad:22:58:5f:e5:ae:1e:ec:8f:c9:fc:54:38:
                    25:16:5b:f4:21:b9:a9:9a:30:62:7a:e8:42:d1:a5:
                    07:7c:dd:f4:cb:1a:6d:bc:53:b0:db:44:0e:6a:74:
                    77:fc:47:8d:29:aa:f5:10:5c:e2:a1:c1:5e:3f:26:
                    29:3f:a3:43:47:53:ee:24:76:29:4a:99:79:9c:b2:
                    31:b9:d5:c9:5e:b9:2c:b7:cc:52:56:eb:29:0a:93:
                    3d:1c:09:84:a5:5d:af:a4:dc:f5:dc:e0:5c:88:06:
                    7d:69:8d:be:26:f6:f6:f1:50:b5:24:8d:5b:eb:cc:
                    66:86:06:f9:01:57:94:07:2b:d8:8e:9a:c5:09:0c:
                    b6:99:ec:66:10:e4:2e:f5:e3:4c:14:1c:52:a7:c5:
                    2b:9e:14:92:39:0e:f2:48:6e:63:9e:f5:a5:f8:e7:
                    ba:e6:cd
                Exponent: 65537 (0x10001)
        X509v3 extensions:
            X509v3 Basic Constraints: 
                CA:FALSE
            Netscape Comment: 
                OpenSSL Generated Certificate
            X509v3 Subject Key Identifier: 
                7E:12:94:6C:A1:99:1B:0C:72:76:61:29:3A:7B:03:86:CE:BC:5E:D0
            X509v3 Authority Key Identifier: 
                keyid:B9:12:5C:69:D5:83:A7:FC:AE:0A:55:93:32:F0:11:46:45:CD:7A:B8

    Signature Algorithm: sha1WithRSAEncryption
        ad:a2:e6:04:95:1c:f0:5d:df:21:51:34:fc:93:ae:10:99:f0:
        f4:fe:64:39:0f:8a:53:7d:bf:99:dc:e4:eb:96:93:92:59:e5:
        b5:b7:5e:d4:a4:02:4a:d7:c8:ea:d1:a4:ea:82:b2:1c:6d:4c:
        d2:df:21:b4:30:84:f9:ec:1f:8b:b2:5e:5e:2c:8b:f4:bb:ce:
        77:43:86:3a:2c:4c:af:aa:5e:11:04:a8:fc:bf:5f:6a:31:37:
        99:8b:37:a0:5a:81:18:6d:08:93:96:29:88:a3:0b:09:4b:2c:
        7d:64:39:b6:80:bf:bf:0b:ce:c4:5b:44:81:ae:f6:66:9d:00:
        47:f3:3c:04:a0:8f:65:2c:f4:95:7e:cd:e4:02:c8:64:5d:4a:
        87:ac:a1:ca:2a:c8:90:21:84:57:f3:22:a9:99:52:ab:b8:e6:
        69:ba:03:aa:fd:2c:1b:06:02:26:90:37:99:ad:c0:e3:07:4c:
        0f:9c:1b:51:dc:c7:bf:11:56:df:6b:fb:f3:3f:45:2b:dc:4b:
        60:66:19:1b:4d:b2:41:ee:72:e3:03:84:a3:8f:3d:c7:bb:e5:
        f8:a0:ed:9d:fa:28:84:76:39:20:28:de:33:23:70:e5:67:5b:
        f0:3e:1d:ca:5d:60:36:35:a3:9d:22:cf:ba:eb:83:67:8e:a9:
        9a:e1:20:89:80:de:30:59:b6:45:00:e8:4d:9b:ae:be:74:d4:
        42:dd:84:c9:bc:9d:d9:0c:48:38:32:c9:b0:14:21:4d:f4:10:
        70:13:81:07:b8:9a:26:89:6a:c9:b1:92:59:a8:36:6d:59:df:
        0e:30:4a:27:31:03:4f:e0:03:f3:c1:f4:14:1e:c2:98:57:e9:
        61:e9:66:b7:ce:a7:c0:eb:30:2b:59:b7:5a:5e:37:51:6c:c5:
        38:a0:69:38:71:15:34:e6:64:92:1d:4d:c7:eb:48:89:e8:11:
        f0:97:dc:f8:78:0f:ed:20:d6:14:d2:b3:ec:81:ea:02:cd:37:
        e7:74:b9:28:c6:59:9d:99:67:0e:b9:c1:3e:0c:33:cc:e4:d4:
        4a:f2:55:b9:74:fd:47:fd:a1:7b:51:04:a0:71:89:06:5b:90:
        74:fd:68:3e:70:4b:a7:26:1c:21:52:d1:f1:6c:75:57:f9:07:
        4f:a4:0d:fa:d9:c6:5b:a8:b3:63:72:5e:04:82:4e:e5:06:97:
        29:f8:b3:47:96:44:b9:0e:d3:a9:cc:73:79:c4:db:27:4b:6b:
        ff:57:1f:f3:0e:03:f9:b3:25:db:90:19:98:d5:d9:4c:8e:61:
        40:99:cf:49:40:aa:39:a9:7e:66:f7:82:3f:c2:fd:bc:a6:02:
        1a:1e:f9:30:b7:a0:4d:76
-----BEGIN CERTIFICATE-----
MIIGODCCBCCgAwIBAgIBATANBgkqhkiG9w0BAQUFADCBoDELMAkGA1UEBhMCREUx
FDASBgNVBAgTC0xvd2VyU2F4b255MQ4wDAYDVQQHEwVQZWluZTEUMBIGA1UEChML
d2VjaGFsbC5uZXQxFDASBgNVBAsTC2RldmVsb3BtZW50MRswGQYDVQQDExJhdXRo
bWUud2VjaGFsbC5uZXQxIjAgBgkqhkiG9w0BCQEWE2dpem1vcmVAd2VjaGFsbC5u
ZXQwHhcNMTMwNzIwMDQyMjAzWhcNMTQwNzIwMDQyMjAzWjCBoDELMAkGA1UEBhMC
REUxFDASBgNVBAgTC0xvd2VyU2F4b255MQ4wDAYDVQQHEwVQZWluZTEUMBIGA1UE
ChMLd2VjaGFsbC5uZXQxFDASBgNVBAsTC2RldmVsb3BtZW50MRswGQYDVQQDExJh
dXRobWUud2VjaGFsbC5uZXQxIjAgBgkqhkiG9w0BCQEWE2dpem1vcmVAd2VjaGFs
bC5uZXQwggIiMA0GCSqGSIb3DQEBAQUAA4ICDwAwggIKAoICAQC8WKepwBU8BRT2
Z56aN2p76GLbUwKSe59YlUe/rUTW0qffyk5A9Er1SjoWmgFoF/KxBVZv50gQTkVQ
BvNasKMhXxnD+mz3FRha55s2fu6y6b6NGvu9/GisOwE1EjKlG4F+lQ3dsV6HvcoO
Bv/RrNcMdxL84NmIUE6EY6Fhk7OIJdrYLIId/qXQktteCg/Ws3xOKfpE5OdHklQ3
rvhV2JellL8HhhyOkyki4zjgTdR6GrgUiQ4BO8MCcheh4CsX61PDvg4yO49O7gTY
RoTeHRcPGvZOsI2wJgoJMcyO28HvgnI3GNbQEn1NEVS3HiIztjCF0L6M8e7aYwYh
N8k1Q8Y67vg5c1kEAnzmz86T8knu8ogEu78ljfJM+IRpCovvnnOBdPNnRBMC2Dlz
eS9azewVoj7beDVCvEoQxejZkz9uVdNyvECAO0mq0HVybMzwuNQ3kMzi7VoOzKtS
rSJYX+WuHuyPyfxUOCUWW/QhuamaMGJ66ELRpQd83fTLGm28U7DbRA5qdHf8R40p
qvUQXOKhwV4/Jik/o0NHU+4kdilKmXmcsjG51cleuSy3zFJW6ykKkz0cCYSlXa+k
3PXc4FyIBn1pjb4m9vbxULUkjVvrzGaGBvkBV5QHK9iOmsUJDLaZ7GYQ5C7140wU
HFKnxSueFJI5DvJIbmOe9aX457rmzQIDAQABo3sweTAJBgNVHRMEAjAAMCwGCWCG
SAGG+EIBDQQfFh1PcGVuU1NMIEdlbmVyYXRlZCBDZXJ0aWZpY2F0ZTAdBgNVHQ4E
FgQUfhKUbKGZGwxydmEpOnsDhs68XtAwHwYDVR0jBBgwFoAUuRJcadWDp/yuClWT
MvARRkXNergwDQYJKoZIhvcNAQEFBQADggIBAK2i5gSVHPBd3yFRNPyTrhCZ8PT+
ZDkPilN9v5nc5OuWk5JZ5bW3XtSkAkrXyOrRpOqCshxtTNLfIbQwhPnsH4uyXl4s
i/S7zndDhjosTK+qXhEEqPy/X2oxN5mLN6BagRhtCJOWKYijCwlLLH1kObaAv78L
zsRbRIGu9madAEfzPASgj2Us9JV+zeQCyGRdSoesocoqyJAhhFfzIqmZUqu45mm6
A6r9LBsGAiaQN5mtwOMHTA+cG1Hcx78RVt9r+/M/RSvcS2BmGRtNskHucuMDhKOP
Pce75fig7Z36KIR2OSAo3jMjcOVnW/A+HcpdYDY1o50iz7rrg2eOqZrhIImA3jBZ
tkUA6E2brr501ELdhMm8ndkMSDgyybAUIU30EHATgQe4miaJasmxklmoNm1Z3w4w
SicxA0/gA/PB9BQewphX6WHpZrfOp8DrMCtZt1peN1FsxTigaThxFTTmZJIdTcfr
SInoEfCX3Ph4D+0g1hTSs+yB6gLNN+d0uSjGWZ2ZZw65wT4MM8zk1EryVbl0/Uf9
oXtRBKBxiQZbkHT9aD5wS6cmHCFS0fFsdVf5B0+kDfrZxluos2NyXgSCTuUGlyn4
s0eWRLkO06nMc3nE2ydLa/9XH/MOA/mzJduQGZjV2UyOYUCZz0lAqjmpfmb3gj/C
/bymAhoe+TC3oE12
-----END CERTIFICATE-----
